target datalayout = "e-m:e-p270:32:32-p271:32:32-p272:64:64-i64:64-i128:128-f80:128-n8:16:32:64-S128"
target triple = "x86_64-pc-linux-gnu"

%"class.icu_77::(anonymous namespace)::MutableCodePointTrie" = type { ptr, i32, i32, ptr, i32, i32, i32, i32, i32, i32, i32, i32, ptr, [69632 x i8] }

; Function Attrs: mustprogress nounwind uwtable
define internal void @_ZN6icu_7712_GLOBAL__N_110writeBlockEPjj(ptr noundef %0, i32 noundef %1) #4 {
  %3 = alloca ptr, align 8
  %4 = alloca i32, align 4
  %5 = alloca ptr, align 8
  store ptr %0, ptr %3, align 8, !tbaa !52
  store i32 %1, ptr %4, align 4, !tbaa !3
  call void @llvm.lifetime.start.p0(i64 8, ptr %5) #11
  %6 = load ptr, ptr %3, align 8, !tbaa !52
  %7 = getelementptr inbounds i32, ptr %6, i64 16
  store ptr %7, ptr %5, align 8, !tbaa !52
  br label %8

8:                                                ; preds = %12, %2
  %9 = load ptr, ptr %3, align 8, !tbaa !52
  %10 = load ptr, ptr %5, align 8, !tbaa !52
  %11 = icmp ult ptr %9, %10
  br i1 %11, label %12, label %16

12:                                               ; preds = %8
  %13 = load i32, ptr %4, align 4, !tbaa !3
  %14 = load ptr, ptr %3, align 8, !tbaa !52
  %15 = getelementptr inbounds nuw i32, ptr %14, i32 1
  store ptr %15, ptr %3, align 8, !tbaa !52
  store i32 %13, ptr %14, align 4, !tbaa !3
  br label %8, !llvm.loop !81

16:                                               ; preds = %8
  call void @llvm.lifetime.end.p0(i64 8, ptr %5) #11
  ret void
}

; Function Attrs: mustprogress uwtable
define internal noundef i32 @_ZN6icu_7712_GLOBAL__N_120MutableCodePointTrie14allocDataBlockEi(ptr noundef nonnull align 8 dereferenceable(69696) %0, i32 noundef %1) #0 align 2 {
  %3 = alloca i32, align 4
  %4 = alloca ptr, align 8
  %5 = alloca i32, align 4
  %6 = alloca i32, align 4
  %7 = alloca i32, align 4
  %8 = alloca i32, align 4
  %9 = alloca i32, align 4
  %10 = alloca ptr, align 8
  store ptr %0, ptr %4, align 8, !tbaa !11
  store i32 %1, ptr %5, align 4, !tbaa !3
  %11 = load ptr, ptr %4, align 8
  call void @llvm.lifetime.start.p0(i64 4, ptr %6) #11
  %12 = getelementptr inbounds nuw %"class.icu_77::(anonymous namespace)::MutableCodePointTrie", ptr %11, i32 0, i32 5
  %13 = load i32, ptr %12, align 4, !tbaa !21
  store i32 %13, ptr %6, align 4, !tbaa !3
  call void @llvm.lifetime.start.p0(i64 4, ptr %7) #11
  %14 = load i32, ptr %6, align 4, !tbaa !3
  %15 = load i32, ptr %5, align 4, !tbaa !3
  %16 = add nsw i32 %14, %15
  store i32 %16, ptr %7, align 4, !tbaa !3
  %17 = load i32, ptr %7, align 4, !tbaa !3
  %18 = getelementptr inbounds nuw %"class.icu_77::(anonymous namespace)::MutableCodePointTrie", ptr %11, i32 0, i32 4
  %19 = load i32, ptr %18, align 8, !tbaa !20
  %20 = icmp sgt i32 %17, %19
  br i1 %20, label %21, label %62

21:                                               ; preds = %2
  call void @llvm.lifetime.start.p0(i64 4, ptr %8) #11
  %22 = getelementptr inbounds nuw %"class.icu_77::(anonymous namespace)::MutableCodePointTrie", ptr %11, i32 0, i32 4
  %23 = load i32, ptr %22, align 8, !tbaa !20
  %24 = icmp slt i32 %23, 131072
  br i1 %24, label %25, label %26

25:                                               ; preds = %21
  store i32 131072, ptr %8, align 4, !tbaa !3
  br label %33

26:                                               ; preds = %21
  %27 = getelementptr inbounds nuw %"class.icu_77::(anonymous namespace)::MutableCodePointTrie", ptr %11, i32 0, i32 4
  %28 = load i32, ptr %27, align 8, !tbaa !20
  %29 = icmp slt i32 %28, 1114112
  br i1 %29, label %30, label %31

30:                                               ; preds = %26
  store i32 1114112, ptr %8, align 4, !tbaa !3
  br label %32

31:                                               ; preds = %26
  store i32 -1, ptr %3, align 4
  store i32 1, ptr %9, align 4
  br label %59

32:                                               ; preds = %30
  br label %33

33:                                               ; preds = %32, %25
  call void @llvm.lifetime.start.p0(i64 8, ptr %10) #11
  %34 = load i32, ptr %8, align 4, !tbaa !3
  %35 = mul nsw i32 %34, 4
  %36 = sext i32 %35 to i64
  %37 = call noalias ptr @uprv_malloc_77(i64 noundef %36) #12
  store ptr %37, ptr %10, align 8, !tbaa !52
  %38 = load ptr, ptr %10, align 8, !tbaa !52
  %39 = icmp eq ptr %38, null
  br i1 %39, label %40, label %41

40:                                               ; preds = %33
  store i32 -1, ptr %3, align 4
  store i32 1, ptr %9, align 4
  br label %58

41:                                               ; preds = %33
  br label %42

42:                                               ; preds = %41
  %43 = load ptr, ptr %10, align 8, !tbaa !52
  %44 = getelementptr inbounds nuw %"class.icu_77::(anonymous namespace)::MutableCodePointTrie", ptr %11, i32 0, i32 3
  %45 = load ptr, ptr %44, align 8, !tbaa !19
  %46 = getelementptr inbounds nuw %"class.icu_77::(anonymous namespace)::MutableCodePointTrie", ptr %11, i32 0, i32 5
  %47 = load i32, ptr %46, align 4, !tbaa !21
  %48 = sext i32 %47 to i64
  %49 = mul i64 %48, 4
  call void @llvm.memcpy.p0.p0.i64(ptr align 4 %43, ptr align 4 %45, i64 %49, i1 false)
  br label %50

50:                                               ; preds = %42
  br label %51

51:                                               ; preds = %50
  %52 = getelementptr inbounds nuw %"class.icu_77::(anonymous namespace)::MutableCodePointTrie", ptr %11, i32 0, i32 3
  %53 = load ptr, ptr %52, align 8, !tbaa !19
  call void @uprv_free_77(ptr noundef %53)
  %54 = load ptr, ptr %10, align 8, !tbaa !52
  %55 = getelementptr inbounds nuw %"class.icu_77::(anonymous namespace)::MutableCodePointTrie", ptr %11, i32 0, i32 3
  store ptr %54, ptr %55, align 8, !tbaa !19
  %56 = load i32, ptr %8, align 4, !tbaa !3
  %57 = getelementptr inbounds nuw %"class.icu_77::(anonymous namespace)::MutableCodePointTrie", ptr %11, i32 0, i32 4
  store i32 %56, ptr %57, align 8, !tbaa !20
  store i32 0, ptr %9, align 4
  br label %58

58:                                               ; preds = %51, %40
  call void @llvm.lifetime.end.p0(i64 8, ptr %10) #11
  br label %59

59:                                               ; preds = %58, %31
  call void @llvm.lifetime.end.p0(i64 4, ptr %8) #11
  %60 = load i32, ptr %9, align 4
  switch i32 %60, label %66 [
    i32 0, label %61
  ]

61:                                               ; preds = %59
  br label %62

62:                                               ; preds = %61, %2
  %63 = load i32, ptr %7, align 4, !tbaa !3
  %64 = getelementptr inbounds nuw %"class.icu_77::(anonymous namespace)::MutableCodePointTrie", ptr %11, i32 0, i32 5
  store i32 %63, ptr %64, align 4, !tbaa !21
  %65 = load i32, ptr %6, align 4, !tbaa !3
  store i32 %65, ptr %3, align 4
  store i32 1, ptr %9, align 4
  br label %66

66:                                               ; preds = %62, %59
  call void @llvm.lifetime.end.p0(i64 4, ptr %7) #11
  call void @llvm.lifetime.end.p0(i64 4, ptr %6) #11
  %67 = load i32, ptr %3, align 4
  ret i32 %67
}

; Function Attrs: mustprogress uwtable
define internal noundef i32 @_ZN6icu_7712_GLOBAL__N_120MutableCodePointTrie12getDataBlockEi(ptr noundef nonnull align 8 dereferenceable(69696) %0, i32 noundef %1) #0 align 2 {
  %3 = alloca i32, align 4
  %4 = alloca ptr, align 8
  %5 = alloca i32, align 4
  %6 = alloca i32, align 4
  %7 = alloca i32, align 4
  %8 = alloca i32, align 4
  %9 = alloca i32, align 4
  %10 = alloca i32, align 4
  store ptr %0, ptr %4, align 8, !tbaa !11
  store i32 %1, ptr %5, align 4, !tbaa !3
  %11 = load ptr, ptr %4, align 8
  %12 = getelementptr inbounds nuw %"class.icu_77::(anonymous namespace)::MutableCodePointTrie", ptr %11, i32 0, i32 13
  %13 = load i32, ptr %5, align 4, !tbaa !3
  %14 = sext i32 %13 to i64
  %15 = getelementptr inbounds [69632 x i8], ptr %12, i64 0, i64 %14
  %16 = load i8, ptr %15, align 1, !tbaa !46
  %17 = zext i8 %16 to i32
  %18 = icmp eq i32 %17, 1
  br i1 %18, label %19, label %26

19:                                               ; preds = %2
  %20 = getelementptr inbounds nuw %"class.icu_77::(anonymous namespace)::MutableCodePointTrie", ptr %11, i32 0, i32 0
  %21 = load ptr, ptr %20, align 8, !tbaa !13
  %22 = load i32, ptr %5, align 4, !tbaa !3
  %23 = sext i32 %22 to i64
  %24 = getelementptr inbounds i32, ptr %21, i64 %23
  %25 = load i32, ptr %24, align 4, !tbaa !3
  store i32 %25, ptr %3, align 4
  br label %107

26:                                               ; preds = %2
  %27 = load i32, ptr %5, align 4, !tbaa !3
  %28 = icmp slt i32 %27, 4096
  br i1 %28, label %29, label %77

29:                                               ; preds = %26
  call void @llvm.lifetime.start.p0(i64 4, ptr %6) #11
  %30 = call noundef i32 @_ZN6icu_7712_GLOBAL__N_120MutableCodePointTrie14allocDataBlockEi(ptr noundef nonnull align 8 dereferenceable(69696) %11, i32 noundef 64)
  store i32 %30, ptr %6, align 4, !tbaa !3
  %31 = load i32, ptr %6, align 4, !tbaa !3
  %32 = icmp slt i32 %31, 0
  br i1 %32, label %33, label %35

33:                                               ; preds = %29
  %34 = load i32, ptr %6, align 4, !tbaa !3
  store i32 %34, ptr %3, align 4
  store i32 1, ptr %7, align 4
  br label %76

35:                                               ; preds = %29
  call void @llvm.lifetime.start.p0(i64 4, ptr %8) #11
  %36 = load i32, ptr %5, align 4, !tbaa !3
  %37 = and i32 %36, -4
  store i32 %37, ptr %8, align 4, !tbaa !3
  call void @llvm.lifetime.start.p0(i64 4, ptr %9) #11
  %38 = load i32, ptr %8, align 4, !tbaa !3
  %39 = add nsw i32 %38, 4
  store i32 %39, ptr %9, align 4, !tbaa !3
  br label %40

40:                                               ; preds = %65, %35
  %41 = getelementptr inbounds nuw %"class.icu_77::(anonymous namespace)::MutableCodePointTrie", ptr %11, i32 0, i32 3
  %42 = load ptr, ptr %41, align 8, !tbaa !19
  %43 = load i32, ptr %6, align 4, !tbaa !3
  %44 = sext i32 %43 to i64
  %45 = getelementptr inbounds i32, ptr %42, i64 %44
  %46 = getelementptr inbounds nuw %"class.icu_77::(anonymous namespace)::MutableCodePointTrie", ptr %11, i32 0, i32 0
  %47 = load ptr, ptr %46, align 8, !tbaa !13
  %48 = load i32, ptr %8, align 4, !tbaa !3
  %49 = sext i32 %48 to i64
  %50 = getelementptr inbounds i32, ptr %47, i64 %49
  %51 = load i32, ptr %50, align 4, !tbaa !3
  call void @_ZN6icu_7712_GLOBAL__N_110writeBlockEPjj(ptr noundef %45, i32 noundef %51)
  %52 = getelementptr inbounds nuw %"class.icu_77::(anonymous namespace)::MutableCodePointTrie", ptr %11, i32 0, i32 13
  %53 = load i32, ptr %8, align 4, !tbaa !3
  %54 = sext i32 %53 to i64
  %55 = getelementptr inbounds [69632 x i8], ptr %52, i64 0, i64 %54
  store i8 1, ptr %55, align 1, !tbaa !46
  %56 = load i32, ptr %6, align 4, !tbaa !3
  %57 = getelementptr inbounds nuw %"class.icu_77::(anonymous namespace)::MutableCodePointTrie", ptr %11, i32 0, i32 0
  %58 = load ptr, ptr %57, align 8, !tbaa !13
  %59 = load i32, ptr %8, align 4, !tbaa !3
  %60 = add nsw i32 %59, 1
  store i32 %60, ptr %8, align 4, !tbaa !3
  %61 = sext i32 %59 to i64
  %62 = getelementptr inbounds i32, ptr %58, i64 %61
  store i32 %56, ptr %62, align 4, !tbaa !3
  %63 = load i32, ptr %6, align 4, !tbaa !3
  %64 = add nsw i32 %63, 16
  store i32 %64, ptr %6, align 4, !tbaa !3
  br label %65

65:                                               ; preds = %40
  %66 = load i32, ptr %8, align 4, !tbaa !3
  %67 = load i32, ptr %9, align 4, !tbaa !3
  %68 = icmp slt i32 %66, %67
  br i1 %68, label %40, label %69, !llvm.loop !80

69:                                               ; preds = %65
  %70 = getelementptr inbounds nuw %"class.icu_77::(anonymous namespace)::MutableCodePointTrie", ptr %11, i32 0, i32 0
  %71 = load ptr, ptr %70, align 8, !tbaa !13
  %72 = load i32, ptr %5, align 4, !tbaa !3
  %73 = sext i32 %72 to i64
  %74 = getelementptr inbounds i32, ptr %71, i64 %73
  %75 = load i32, ptr %74, align 4, !tbaa !3
  store i32 %75, ptr %3, align 4
  store i32 1, ptr %7, align 4
  call void @llvm.lifetime.end.p0(i64 4, ptr %9) #11
  call void @llvm.lifetime.end.p0(i64 4, ptr %8) #11
  br label %76

76:                                               ; preds = %69, %33
  call void @llvm.lifetime.end.p0(i64 4, ptr %6) #11
  br label %107

77:                                               ; preds = %26
  call void @llvm.lifetime.start.p0(i64 4, ptr %10) #11
  %78 = call noundef i32 @_ZN6icu_7712_GLOBAL__N_120MutableCodePointTrie14allocDataBlockEi(ptr noundef nonnull align 8 dereferenceable(69696) %11, i32 noundef 16)
  store i32 %78, ptr %10, align 4, !tbaa !3
  %79 = load i32, ptr %10, align 4, !tbaa !3
  %80 = icmp slt i32 %79, 0
  br i1 %80, label %81, label %83

81:                                               ; preds = %77
  %82 = load i32, ptr %10, align 4, !tbaa !3
  store i32 %82, ptr %3, align 4
  store i32 1, ptr %7, align 4
  br label %106

83:                                               ; preds = %77
  %84 = getelementptr inbounds nuw %"class.icu_77::(anonymous namespace)::MutableCodePointTrie", ptr %11, i32 0, i32 3
  %85 = load ptr, ptr %84, align 8, !tbaa !19
  %86 = load i32, ptr %10, align 4, !tbaa !3
  %87 = sext i32 %86 to i64
  %88 = getelementptr inbounds i32, ptr %85, i64 %87
  %89 = getelementptr inbounds nuw %"class.icu_77::(anonymous namespace)::MutableCodePointTrie", ptr %11, i32 0, i32 0
  %90 = load ptr, ptr %89, align 8, !tbaa !13
  %91 = load i32, ptr %5, align 4, !tbaa !3
  %92 = sext i32 %91 to i64
  %93 = getelementptr inbounds i32, ptr %90, i64 %92
  %94 = load i32, ptr %93, align 4, !tbaa !3
  call void @_ZN6icu_7712_GLOBAL__N_110writeBlockEPjj(ptr noundef %88, i32 noundef %94)
  %95 = getelementptr inbounds nuw %"class.icu_77::(anonymous namespace)::MutableCodePointTrie", ptr %11, i32 0, i32 13
  %96 = load i32, ptr %5, align 4, !tbaa !3
  %97 = sext i32 %96 to i64
  %98 = getelementptr inbounds [69632 x i8], ptr %95, i64 0, i64 %97
  store i8 1, ptr %98, align 1, !tbaa !46
  %99 = load i32, ptr %10, align 4, !tbaa !3
  %100 = getelementptr inbounds nuw %"class.icu_77::(anonymous namespace)::MutableCodePointTrie", ptr %11, i32 0, i32 0
  %101 = load ptr, ptr %100, align 8, !tbaa !13
  %102 = load i32, ptr %5, align 4, !tbaa !3
  %103 = sext i32 %102 to i64
  %104 = getelementptr inbounds i32, ptr %101, i64 %103
  store i32 %99, ptr %104, align 4, !tbaa !3
  %105 = load i32, ptr %10, align 4, !tbaa !3
  store i32 %105, ptr %3, align 4
  store i32 1, ptr %7, align 4
  br label %106

106:                                              ; preds = %83, %81
  call void @llvm.lifetime.end.p0(i64 4, ptr %10) #11
  br label %107

107:                                              ; preds = %106, %76, %19
  %108 = load i32, ptr %3, align 4
  ret i32 %108
}