; Function Attrs: mustprogress uwtable
define internal fastcc noundef i32 @_ZN6icu_7712_GLOBAL__N_120MutableCodePointTrie12getDataBlockEi(ptr noundef nonnull align 8 captures(none) dereferenceable(69696) %0, i32 noundef range(i32 -2147483648, 134217727) %1) unnamed_addr #0 align 2 {
  %3 = getelementptr inbounds nuw i8, ptr %0, i64 64
  %4 = sext i32 %1 to i64
  %5 = getelementptr inbounds [69632 x i8], ptr %3, i64 0, i64 %4
  %6 = load i8, ptr %5, align 1, !tbaa !31
  %7 = icmp eq i8 %6, 1
  br i1 %7, label %8, label %12

8:                                                ; preds = %2
  %9 = load ptr, ptr %0, align 8, !tbaa !7
  %10 = getelementptr inbounds i32, ptr %9, i64 %4
  %11 = load i32, ptr %10, align 4, !tbaa !25
  br label %_ZN6icu_7712_GLOBAL__N_120MutableCodePointTrie14allocDataBlockEi.exit.thread

12:                                               ; preds = %2
  %13 = icmp slt i32 %1, 4096
  %14 = getelementptr inbounds nuw i8, ptr %0, i64 28
  %15 = load i32, ptr %14, align 4, !tbaa !24
  %16 = getelementptr inbounds nuw i8, ptr %0, i64 24
  %17 = load i32, ptr %16, align 8, !tbaa !23
  br i1 %13, label %18, label %59

18:                                               ; preds = %12
  %19 = add nsw i32 %15, 64
  %20 = icmp sgt i32 %19, %17
  br i1 %20, label %21, label %_ZN6icu_7712_GLOBAL__N_120MutableCodePointTrie14allocDataBlockEi.exit

21:                                               ; preds = %18
  %22 = icmp slt i32 %17, 131072
  br i1 %22, label %25, label %23

23:                                               ; preds = %21
  %24 = icmp samesign ult i32 %17, 1114112
  br i1 %24, label %25, label %_ZN6icu_7712_GLOBAL__N_120MutableCodePointTrie14allocDataBlockEi.exit.thread

25:                                               ; preds = %23, %21
  %.014.i = phi i32 [ 131072, %21 ], [ 1114112, %23 ]
  %26 = shl nuw nsw i32 %.014.i, 2
  %27 = zext nneg i32 %26 to i64
  %28 = tail call noalias ptr @uprv_malloc_77(i64 noundef %27) #14
  %.not.i = icmp eq ptr %28, null
  br i1 %.not.i, label %_ZN6icu_7712_GLOBAL__N_120MutableCodePointTrie14allocDataBlockEi.exit.thread, label %29

29:                                               ; preds = %25
  %30 = getelementptr inbounds nuw i8, ptr %0, i64 16
  %31 = load ptr, ptr %30, align 8, !tbaa !22
  %32 = load i32, ptr %14, align 4, !tbaa !24
  %33 = sext i32 %32 to i64
  %34 = shl nsw i64 %33, 2
  tail call void @llvm.memcpy.p0.p0.i64(ptr nonnull align 4 %28, ptr align 4 %31, i64 %34, i1 false)
  tail call void @uprv_free_77(ptr noundef %31)
  store ptr %28, ptr %30, align 8, !tbaa !22
  store i32 %.014.i, ptr %16, align 8, !tbaa !23
  br label %_ZN6icu_7712_GLOBAL__N_120MutableCodePointTrie14allocDataBlockEi.exit

_ZN6icu_7712_GLOBAL__N_120MutableCodePointTrie14allocDataBlockEi.exit: ; preds = %18, %29
  store i32 %19, ptr %14, align 4, !tbaa !24
  %35 = icmp slt i32 %15, 0
  br i1 %35, label %_ZN6icu_7712_GLOBAL__N_120MutableCodePointTrie14allocDataBlockEi.exit.thread, label %36

36:                                               ; preds = %_ZN6icu_7712_GLOBAL__N_120MutableCodePointTrie14allocDataBlockEi.exit
  %37 = and i32 %1, -4
  %38 = getelementptr inbounds nuw i8, ptr %0, i64 16
  %39 = or i32 %1, 3
  %40 = sext i32 %37 to i64
  %41 = sext i32 %39 to i64
  %42 = zext nneg i32 %15 to i64
  %.pre = load ptr, ptr %0, align 8, !tbaa !7
  br label %43

43:                                               ; preds = %_ZN6icu_7712_GLOBAL__N_110writeBlockEPjj.exit, %36
  %44 = phi ptr [ %52, %_ZN6icu_7712_GLOBAL__N_110writeBlockEPjj.exit ], [ %.pre, %36 ]
  %indvars.iv41 = phi i64 [ %indvars.iv.next42, %_ZN6icu_7712_GLOBAL__N_110writeBlockEPjj.exit ], [ %42, %36 ]
  %indvars.iv = phi i64 [ %indvars.iv.next, %_ZN6icu_7712_GLOBAL__N_110writeBlockEPjj.exit ], [ %40, %36 ]
  %45 = load ptr, ptr %38, align 8, !tbaa !22
  %46 = getelementptr inbounds nuw i32, ptr %45, i64 %indvars.iv41
  %47 = getelementptr inbounds i32, ptr %44, i64 %indvars.iv
  %48 = load i32, ptr %47, align 4, !tbaa !25
  br label %49

49:                                               ; preds = %49, %43
  %.0.idx4.i = phi i64 [ 0, %43 ], [ %.0.add.i, %49 ]
  %.0.ptr.i = getelementptr inbounds nuw i8, ptr %46, i64 %.0.idx4.i
  %.0.add.i = add nuw nsw i64 %.0.idx4.i, 4
  store i32 %48, ptr %.0.ptr.i, align 4, !tbaa !25
  %50 = icmp samesign ult i64 %.0.idx4.i, 60
  br i1 %50, label %49, label %_ZN6icu_7712_GLOBAL__N_110writeBlockEPjj.exit, !llvm.loop !103

_ZN6icu_7712_GLOBAL__N_110writeBlockEPjj.exit:    ; preds = %49
  %51 = getelementptr inbounds [69632 x i8], ptr %3, i64 0, i64 %indvars.iv
  store i8 1, ptr %51, align 1, !tbaa !31
  %52 = load ptr, ptr %0, align 8, !tbaa !7
  %indvars.iv.next = add nsw i64 %indvars.iv, 1
  %53 = getelementptr inbounds i32, ptr %52, i64 %indvars.iv
  %54 = trunc nuw i64 %indvars.iv41 to i32
  store i32 %54, ptr %53, align 4, !tbaa !25
  %indvars.iv.next42 = add nuw nsw i64 %indvars.iv41, 16
  %55 = icmp slt i64 %indvars.iv, %41
  br i1 %55, label %43, label %56, !llvm.loop !104

56:                                               ; preds = %_ZN6icu_7712_GLOBAL__N_110writeBlockEPjj.exit
  %57 = getelementptr inbounds i32, ptr %52, i64 %4
  %58 = load i32, ptr %57, align 4, !tbaa !25
  br label %_ZN6icu_7712_GLOBAL__N_120MutableCodePointTrie14allocDataBlockEi.exit.thread

59:                                               ; preds = %12
  %60 = add nsw i32 %15, 16
  %61 = icmp sgt i32 %60, %17
  br i1 %61, label %62, label %_ZN6icu_7712_GLOBAL__N_120MutableCodePointTrie14allocDataBlockEi.exit34

62:                                               ; preds = %59
  %63 = icmp slt i32 %17, 131072
  br i1 %63, label %66, label %64

64:                                               ; preds = %62
  %65 = icmp samesign ult i32 %17, 1114112
  br i1 %65, label %66, label %_ZN6icu_7712_GLOBAL__N_120MutableCodePointTrie14allocDataBlockEi.exit.thread

66:                                               ; preds = %64, %62
  %.014.i32 = phi i32 [ 131072, %62 ], [ 1114112, %64 ]
  %67 = shl nuw nsw i32 %.014.i32, 2
  %68 = zext nneg i32 %67 to i64
  %69 = tail call noalias ptr @uprv_malloc_77(i64 noundef %68) #14
  %.not.i33 = icmp eq ptr %69, null
  br i1 %.not.i33, label %_ZN6icu_7712_GLOBAL__N_120MutableCodePointTrie14allocDataBlockEi.exit.thread, label %70

70:                                               ; preds = %66
  %71 = getelementptr inbounds nuw i8, ptr %0, i64 16
  %72 = load ptr, ptr %71, align 8, !tbaa !22
  %73 = load i32, ptr %14, align 4, !tbaa !24
  %74 = sext i32 %73 to i64
  %75 = shl nsw i64 %74, 2
  tail call void @llvm.memcpy.p0.p0.i64(ptr nonnull align 4 %69, ptr align 4 %72, i64 %75, i1 false)
  tail call void @uprv_free_77(ptr noundef %72)
  store ptr %69, ptr %71, align 8, !tbaa !22
  store i32 %.014.i32, ptr %16, align 8, !tbaa !23
  br label %_ZN6icu_7712_GLOBAL__N_120MutableCodePointTrie14allocDataBlockEi.exit34

_ZN6icu_7712_GLOBAL__N_120MutableCodePointTrie14allocDataBlockEi.exit34: ; preds = %59, %70
  store i32 %60, ptr %14, align 4, !tbaa !24
  %76 = icmp slt i32 %15, 0
  br i1 %76, label %_ZN6icu_7712_GLOBAL__N_120MutableCodePointTrie14allocDataBlockEi.exit.thread, label %77

77:                                               ; preds = %_ZN6icu_7712_GLOBAL__N_120MutableCodePointTrie14allocDataBlockEi.exit34
  %78 = getelementptr inbounds nuw i8, ptr %0, i64 16
  %79 = load ptr, ptr %78, align 8, !tbaa !22
  %80 = zext nneg i32 %15 to i64
  %81 = getelementptr inbounds nuw i32, ptr %79, i64 %80
  %82 = load ptr, ptr %0, align 8, !tbaa !7
  %83 = getelementptr inbounds nuw i32, ptr %82, i64 %4
  %84 = load i32, ptr %83, align 4, !tbaa !25
  br label %85

85:                                               ; preds = %85, %77
  %.0.idx4.i35 = phi i64 [ 0, %77 ], [ %.0.add.i37, %85 ]
  %.0.ptr.i36 = getelementptr inbounds nuw i8, ptr %81, i64 %.0.idx4.i35
  %.0.add.i37 = add nuw nsw i64 %.0.idx4.i35, 4
  store i32 %84, ptr %.0.ptr.i36, align 4, !tbaa !25
  %86 = icmp samesign ult i64 %.0.idx4.i35, 60
  br i1 %86, label %85, label %_ZN6icu_7712_GLOBAL__N_110writeBlockEPjj.exit38, !llvm.loop !103

_ZN6icu_7712_GLOBAL__N_110writeBlockEPjj.exit38:  ; preds = %85
  store i8 1, ptr %5, align 1, !tbaa !31
  %87 = load ptr, ptr %0, align 8, !tbaa !7
  %88 = getelementptr inbounds nuw i32, ptr %87, i64 %4
  store i32 %15, ptr %88, align 4, !tbaa !25
  br label %_ZN6icu_7712_GLOBAL__N_120MutableCodePointTrie14allocDataBlockEi.exit.thread

_ZN6icu_7712_GLOBAL__N_120MutableCodePointTrie14allocDataBlockEi.exit.thread: ; preds = %66, %64, %25, %23, %_ZN6icu_7712_GLOBAL__N_110writeBlockEPjj.exit38, %_ZN6icu_7712_GLOBAL__N_120MutableCodePointTrie14allocDataBlockEi.exit34, %56, %_ZN6icu_7712_GLOBAL__N_120MutableCodePointTrie14allocDataBlockEi.exit, %8
  %.0 = phi i32 [ %11, %8 ], [ %58, %56 ], [ %15, %_ZN6icu_7712_GLOBAL__N_120MutableCodePointTrie14allocDataBlockEi.exit ], [ %15, %_ZN6icu_7712_GLOBAL__N_120MutableCodePointTrie14allocDataBlockEi.exit34 ], [ %15, %_ZN6icu_7712_GLOBAL__N_110writeBlockEPjj.exit38 ], [ -1, %23 ], [ -1, %25 ], [ -1, %64 ], [ -1, %66 ]
  ret i32 %.0
}